target datalayout = "e-m:e-p270:32:32-p271:32:32-p272:64:64-i64:64-i128:128-f80:128-n8:16:32:64-S128"
target triple = "x86_64-pc-linux-gnu"

%struct.PQExpBufferData = type { ptr, i64, i64 }
%struct._PQconninfoOption = type { ptr, ptr, ptr, ptr, ptr, ptr, i32 }

@.str = private unnamed_addr constant [14 x i8] c"out of memory\00", align 1
@.str.19 = private unnamed_addr constant [7 x i8] c"prefer\00", align 1
@.str.20 = private unnamed_addr constant [8 x i8] c"require\00", align 1
@.str.28 = private unnamed_addr constant [8 x i8] c"sslmode\00", align 1
@.str.237 = private unnamed_addr constant [59 x i8] c"extra key/value separator \22=\22 in URI query parameter: \22%s\22\00", align 1
@.str.238 = private unnamed_addr constant [61 x i8] c"missing key/value separator \22=\22 in URI query parameter: \22%s\22\00", align 1
@.str.239 = private unnamed_addr constant [4 x i8] c"ssl\00", align 1
@.str.240 = private unnamed_addr constant [5 x i8] c"true\00", align 1
@.str.241 = private unnamed_addr constant [34 x i8] c"invalid URI query parameter: \22%s\22\00", align 1
@.str.247 = private unnamed_addr constant [31 x i8] c"invalid connection option \22%s\22\00", align 1
@.str.260 = private unnamed_addr constant [11 x i8] c"requiressl\00", align 1

; Function Attrs: nounwind uwtable
define internal ptr @conninfo_find(ptr noundef %0, ptr noundef %1) #0 {
  %3 = alloca ptr, align 8
  %4 = alloca ptr, align 8
  %5 = alloca ptr, align 8
  %6 = alloca ptr, align 8
  %7 = alloca i32, align 4
  store ptr %0, ptr %4, align 8
  store ptr %1, ptr %5, align 8
  call void @llvm.lifetime.start.p0(i64 8, ptr %6) #12
  %8 = load ptr, ptr %4, align 8
  store ptr %8, ptr %6, align 8
  br label %9

9:                                                ; preds = %24, %2
  %10 = load ptr, ptr %6, align 8
  %11 = getelementptr inbounds nuw %struct._PQconninfoOption, ptr %10, i32 0, i32 0
  %12 = load ptr, ptr %11, align 8
  %13 = icmp ne ptr %12, null
  br i1 %13, label %14, label %27

14:                                               ; preds = %9
  %15 = load ptr, ptr %6, align 8
  %16 = getelementptr inbounds nuw %struct._PQconninfoOption, ptr %15, i32 0, i32 0
  %17 = load ptr, ptr %16, align 8
  %18 = load ptr, ptr %5, align 8
  %19 = call i32 @strcmp(ptr noundef %17, ptr noundef %18) #13
  %20 = icmp eq i32 %19, 0
  br i1 %20, label %21, label %23

21:                                               ; preds = %14
  %22 = load ptr, ptr %6, align 8
  store ptr %22, ptr %3, align 8
  store i32 1, ptr %7, align 4
  br label %28

23:                                               ; preds = %14
  br label %24

24:                                               ; preds = %23
  %25 = load ptr, ptr %6, align 8
  %26 = getelementptr inbounds nuw %struct._PQconninfoOption, ptr %25, i32 1
  store ptr %26, ptr %6, align 8
  br label %9, !llvm.loop !48

27:                                               ; preds = %9
  store ptr null, ptr %3, align 8
  store i32 1, ptr %7, align 4
  br label %28

28:                                               ; preds = %27, %21
  call void @llvm.lifetime.end.p0(i64 8, ptr %6) #12
  %29 = load ptr, ptr %3, align 8
  ret ptr %29
}

; Function Attrs: nounwind uwtable
define internal ptr @conninfo_storeval(ptr noundef %0, ptr noundef %1, ptr noundef %2, ptr noundef %3, i1 noundef zeroext %4, i1 noundef zeroext %5) #0 {
  %7 = alloca ptr, align 8
  %8 = alloca ptr, align 8
  %9 = alloca ptr, align 8
  %10 = alloca ptr, align 8
  %11 = alloca ptr, align 8
  %12 = alloca i8, align 1
  %13 = alloca i8, align 1
  %14 = alloca ptr, align 8
  %15 = alloca ptr, align 8
  %16 = alloca i32, align 4
  store ptr %0, ptr %8, align 8
  store ptr %1, ptr %9, align 8
  store ptr %2, ptr %10, align 8
  store ptr %3, ptr %11, align 8
  %17 = zext i1 %4 to i8
  store i8 %17, ptr %12, align 1
  %18 = zext i1 %5 to i8
  store i8 %18, ptr %13, align 1
  call void @llvm.lifetime.start.p0(i64 8, ptr %14) #12
  call void @llvm.lifetime.start.p0(i64 8, ptr %15) #12
  %19 = load ptr, ptr %9, align 8
  %20 = call i32 @strcmp(ptr noundef %19, ptr noundef @.str.260) #13
  %21 = icmp eq i32 %20, 0
  br i1 %21, label %22, label %31

22:                                               ; preds = %6
  store ptr @.str.28, ptr %9, align 8
  %23 = load ptr, ptr %10, align 8
  %24 = getelementptr inbounds i8, ptr %23, i64 0
  %25 = load i8, ptr %24, align 1
  %26 = sext i8 %25 to i32
  %27 = icmp eq i32 %26, 49
  br i1 %27, label %28, label %29

28:                                               ; preds = %22
  store ptr @.str.20, ptr %10, align 8
  br label %30

29:                                               ; preds = %22
  store ptr @.str.19, ptr %10, align 8
  br label %30

30:                                               ; preds = %29, %28
  br label %31

31:                                               ; preds = %30, %6
  %32 = load ptr, ptr %8, align 8
  %33 = load ptr, ptr %9, align 8
  %34 = call ptr @conninfo_find(ptr noundef %32, ptr noundef %33)
  store ptr %34, ptr %14, align 8
  %35 = load ptr, ptr %14, align 8
  %36 = icmp eq ptr %35, null
  br i1 %36, label %37, label %44

37:                                               ; preds = %31
  %38 = load i8, ptr %12, align 1, !range !3, !noundef !4
  %39 = trunc i8 %38 to i1
  br i1 %39, label %43, label %40

40:                                               ; preds = %37
  %41 = load ptr, ptr %11, align 8
  %42 = load ptr, ptr %9, align 8
  call void (ptr, ptr, ...) @libpq_append_error(ptr noundef %41, ptr noundef @.str.247, ptr noundef %42)
  br label %43

43:                                               ; preds = %40, %37
  store ptr null, ptr %7, align 8
  store i32 1, ptr %16, align 4
  br label %71

44:                                               ; preds = %31
  %45 = load i8, ptr %13, align 1, !range !3, !noundef !4
  %46 = trunc i8 %45 to i1
  br i1 %46, label %47, label %55

47:                                               ; preds = %44
  %48 = load ptr, ptr %10, align 8
  %49 = load ptr, ptr %11, align 8
  %50 = call ptr @conninfo_uri_decode(ptr noundef %48, ptr noundef %49)
  store ptr %50, ptr %15, align 8
  %51 = load ptr, ptr %15, align 8
  %52 = icmp eq ptr %51, null
  br i1 %52, label %53, label %54

53:                                               ; preds = %47
  store ptr null, ptr %7, align 8
  store i32 1, ptr %16, align 4
  br label %71

54:                                               ; preds = %47
  br label %63

55:                                               ; preds = %44
  %56 = load ptr, ptr %10, align 8
  %57 = call noalias ptr @strdup(ptr noundef %56) #12
  store ptr %57, ptr %15, align 8
  %58 = load ptr, ptr %15, align 8
  %59 = icmp eq ptr %58, null
  br i1 %59, label %60, label %62

60:                                               ; preds = %55
  %61 = load ptr, ptr %11, align 8
  call void (ptr, ptr, ...) @libpq_append_error(ptr noundef %61, ptr noundef @.str)
  store ptr null, ptr %7, align 8
  store i32 1, ptr %16, align 4
  br label %71

62:                                               ; preds = %55
  br label %63

63:                                               ; preds = %62, %54
  %64 = load ptr, ptr %14, align 8
  %65 = getelementptr inbounds nuw %struct._PQconninfoOption, ptr %64, i32 0, i32 3
  %66 = load ptr, ptr %65, align 8
  call void @free(ptr noundef %66) #12
  %67 = load ptr, ptr %15, align 8
  %68 = load ptr, ptr %14, align 8
  %69 = getelementptr inbounds nuw %struct._PQconninfoOption, ptr %68, i32 0, i32 3
  store ptr %67, ptr %69, align 8
  %70 = load ptr, ptr %14, align 8
  store ptr %70, ptr %7, align 8
  store i32 1, ptr %16, align 4
  br label %71

71:                                               ; preds = %63, %60, %53, %43
  call void @llvm.lifetime.end.p0(i64 8, ptr %15) #12
  call void @llvm.lifetime.end.p0(i64 8, ptr %14) #12
  %72 = load ptr, ptr %7, align 8
  ret ptr %72
}

; Function Attrs: nounwind uwtable
define internal zeroext i1 @conninfo_uri_parse_params(ptr noundef %0, ptr noundef %1, ptr noundef %2) #0 {
  %4 = alloca i1, align 1
  %5 = alloca ptr, align 8
  %6 = alloca ptr, align 8
  %7 = alloca ptr, align 8
  %8 = alloca ptr, align 8
  %9 = alloca ptr, align 8
  %10 = alloca ptr, align 8
  %11 = alloca i8, align 1
  %12 = alloca i32, align 4
  %13 = alloca i32, align 4
  store ptr %0, ptr %5, align 8
  store ptr %1, ptr %6, align 8
  store ptr %2, ptr %7, align 8
  br label %14

14:                                               ; preds = %130, %3
  %15 = load ptr, ptr %5, align 8
  %16 = load i8, ptr %15, align 1
  %17 = icmp ne i8 %16, 0
  br i1 %17, label %18, label %131

18:                                               ; preds = %14
  call void @llvm.lifetime.start.p0(i64 8, ptr %8) #12
  %19 = load ptr, ptr %5, align 8
  store ptr %19, ptr %8, align 8
  call void @llvm.lifetime.start.p0(i64 8, ptr %9) #12
  store ptr null, ptr %9, align 8
  call void @llvm.lifetime.start.p0(i64 8, ptr %10) #12
  %20 = load ptr, ptr %5, align 8
  store ptr %20, ptr %10, align 8
  call void @llvm.lifetime.start.p0(i64 1, ptr %11) #12
  store i8 0, ptr %11, align 1
  call void @llvm.lifetime.start.p0(i64 4, ptr %12) #12
  br label %21

21:                                               ; preds = %65, %18
  %22 = load ptr, ptr %10, align 8
  %23 = load i8, ptr %22, align 1
  %24 = sext i8 %23 to i32
  %25 = icmp eq i32 %24, 61
  br i1 %25, label %26, label %36

26:                                               ; preds = %21
  %27 = load ptr, ptr %9, align 8
  %28 = icmp ne ptr %27, null
  br i1 %28, label %29, label %32

29:                                               ; preds = %26
  %30 = load ptr, ptr %7, align 8
  %31 = load ptr, ptr %8, align 8
  call void (ptr, ptr, ...) @libpq_append_error(ptr noundef %30, ptr noundef @.str.237, ptr noundef %31)
  store i1 false, ptr %4, align 1
  store i32 1, ptr %13, align 4
  br label %128

32:                                               ; preds = %26
  %33 = load ptr, ptr %10, align 8
  %34 = getelementptr inbounds nuw i8, ptr %33, i32 1
  store ptr %34, ptr %10, align 8
  store i8 0, ptr %33, align 1
  %35 = load ptr, ptr %10, align 8
  store ptr %35, ptr %9, align 8
  br label %65

36:                                               ; preds = %21
  %37 = load ptr, ptr %10, align 8
  %38 = load i8, ptr %37, align 1
  %39 = sext i8 %38 to i32
  %40 = icmp eq i32 %39, 38
  br i1 %40, label %46, label %41

41:                                               ; preds = %36
  %42 = load ptr, ptr %10, align 8
  %43 = load i8, ptr %42, align 1
  %44 = sext i8 %43 to i32
  %45 = icmp eq i32 %44, 0
  br i1 %45, label %46, label %61

46:                                               ; preds = %41, %36
  %47 = load ptr, ptr %10, align 8
  %48 = load i8, ptr %47, align 1
  %49 = sext i8 %48 to i32
  %50 = icmp ne i32 %49, 0
  br i1 %50, label %51, label %54

51:                                               ; preds = %46
  %52 = load ptr, ptr %10, align 8
  %53 = getelementptr inbounds nuw i8, ptr %52, i32 1
  store ptr %53, ptr %10, align 8
  store i8 0, ptr %52, align 1
  br label %54

54:                                               ; preds = %51, %46
  %55 = load ptr, ptr %9, align 8
  %56 = icmp eq ptr %55, null
  br i1 %56, label %57, label %60

57:                                               ; preds = %54
  %58 = load ptr, ptr %7, align 8
  %59 = load ptr, ptr %8, align 8
  call void (ptr, ptr, ...) @libpq_append_error(ptr noundef %58, ptr noundef @.str.238, ptr noundef %59)
  store i1 false, ptr %4, align 1
  store i32 1, ptr %13, align 4
  br label %128

60:                                               ; preds = %54
  br label %66

61:                                               ; preds = %41
  %62 = load ptr, ptr %10, align 8
  %63 = getelementptr inbounds nuw i8, ptr %62, i32 1
  store ptr %63, ptr %10, align 8
  br label %64

64:                                               ; preds = %61
  br label %65

65:                                               ; preds = %64, %32
  br label %21

66:                                               ; preds = %60
  %67 = load ptr, ptr %8, align 8
  %68 = load ptr, ptr %7, align 8
  %69 = call ptr @conninfo_uri_decode(ptr noundef %67, ptr noundef %68)
  store ptr %69, ptr %8, align 8
  %70 = load ptr, ptr %8, align 8
  %71 = icmp eq ptr %70, null
  br i1 %71, label %72, label %73

72:                                               ; preds = %66
  store i1 false, ptr %4, align 1
  store i32 1, ptr %13, align 4
  br label %128

73:                                               ; preds = %66
  %74 = load ptr, ptr %9, align 8
  %75 = load ptr, ptr %7, align 8
  %76 = call ptr @conninfo_uri_decode(ptr noundef %74, ptr noundef %75)
  store ptr %76, ptr %9, align 8
  %77 = load ptr, ptr %9, align 8
  %78 = icmp eq ptr %77, null
  br i1 %78, label %79, label %81

79:                                               ; preds = %73
  %80 = load ptr, ptr %8, align 8
  call void @free(ptr noundef %80) #12
  store i1 false, ptr %4, align 1
  store i32 1, ptr %13, align 4
  br label %128

81:                                               ; preds = %73
  store i8 1, ptr %11, align 1
  %82 = load ptr, ptr %8, align 8
  %83 = call i32 @strcmp(ptr noundef %82, ptr noundef @.str.239) #13
  %84 = icmp eq i32 %83, 0
  br i1 %84, label %85, label %92

85:                                               ; preds = %81
  %86 = load ptr, ptr %9, align 8
  %87 = call i32 @strcmp(ptr noundef %86, ptr noundef @.str.240) #13
  %88 = icmp eq i32 %87, 0
  br i1 %88, label %89, label %92

89:                                               ; preds = %85
  %90 = load ptr, ptr %8, align 8
  call void @free(ptr noundef %90) #12
  %91 = load ptr, ptr %9, align 8
  call void @free(ptr noundef %91) #12
  store i8 0, ptr %11, align 1
  store ptr @.str.28, ptr %8, align 8
  store ptr @.str.20, ptr %9, align 8
  br label %92

92:                                               ; preds = %89, %85, %81
  %93 = load ptr, ptr %7, align 8
  %94 = getelementptr inbounds nuw %struct.PQExpBufferData, ptr %93, i32 0, i32 1
  %95 = load i64, ptr %94, align 8
  %96 = trunc i64 %95 to i32
  store i32 %96, ptr %12, align 4
  %97 = load ptr, ptr %6, align 8
  %98 = load ptr, ptr %8, align 8
  %99 = load ptr, ptr %9, align 8
  %100 = load ptr, ptr %7, align 8
  %101 = call ptr @conninfo_storeval(ptr noundef %97, ptr noundef %98, ptr noundef %99, ptr noundef %100, i1 noundef zeroext true, i1 noundef zeroext false)
  %102 = icmp ne ptr %101, null
  br i1 %102, label %120, label %103

103:                                              ; preds = %92
  %104 = load ptr, ptr %7, align 8
  %105 = getelementptr inbounds nuw %struct.PQExpBufferData, ptr %104, i32 0, i32 1
  %106 = load i64, ptr %105, align 8
  %107 = load i32, ptr %12, align 4
  %108 = sext i32 %107 to i64
  %109 = icmp eq i64 %106, %108
  br i1 %109, label %110, label %113

110:                                              ; preds = %103
  %111 = load ptr, ptr %7, align 8
  %112 = load ptr, ptr %8, align 8
  call void (ptr, ptr, ...) @libpq_append_error(ptr noundef %111, ptr noundef @.str.241, ptr noundef %112)
  br label %113

113:                                              ; preds = %110, %103
  %114 = load i8, ptr %11, align 1, !range !3, !noundef !4
  %115 = trunc i8 %114 to i1
  br i1 %115, label %116, label %119

116:                                              ; preds = %113
  %117 = load ptr, ptr %8, align 8
  call void @free(ptr noundef %117) #12
  %118 = load ptr, ptr %9, align 8
  call void @free(ptr noundef %118) #12
  br label %119

119:                                              ; preds = %116, %113
  store i1 false, ptr %4, align 1
  store i32 1, ptr %13, align 4
  br label %128

120:                                              ; preds = %92
  %121 = load i8, ptr %11, align 1, !range !3, !noundef !4
  %122 = trunc i8 %121 to i1
  br i1 %122, label %123, label %126

123:                                              ; preds = %120
  %124 = load ptr, ptr %8, align 8
  call void @free(ptr noundef %124) #12
  %125 = load ptr, ptr %9, align 8
  call void @free(ptr noundef %125) #12
  br label %126

126:                                              ; preds = %123, %120
  %127 = load ptr, ptr %10, align 8
  store ptr %127, ptr %5, align 8
  store i32 0, ptr %13, align 4
  br label %128

128:                                              ; preds = %126, %119, %79, %72, %57, %29
  call void @llvm.lifetime.end.p0(i64 4, ptr %12) #12
  call void @llvm.lifetime.end.p0(i64 1, ptr %11) #12
  call void @llvm.lifetime.end.p0(i64 8, ptr %10) #12
  call void @llvm.lifetime.end.p0(i64 8, ptr %9) #12
  call void @llvm.lifetime.end.p0(i64 8, ptr %8) #12
  %129 = load i32, ptr %13, align 4
  switch i32 %129, label %134 [
    i32 0, label %130
    i32 1, label %132
  ]

130:                                              ; preds = %128
  br label %14, !llvm.loop !61

131:                                              ; preds = %14
  store i1 true, ptr %4, align 1
  br label %132

132:                                              ; preds = %131, %128
  %133 = load i1, ptr %4, align 1
  ret i1 %133

134:                                              ; preds = %128
  unreachable
}