; Function Attrs: nounwind uwtable
define internal fastcc noundef zeroext i1 @conninfo_uri_parse_params(ptr noundef nonnull %0, ptr noundef nonnull captures(none) %1, ptr noundef nonnull %2) unnamed_addr #0 {
  %4 = load i8, ptr %0, align 1
  %.not107 = icmp eq i8 %4, 0
  br i1 %.not107, label %.thread, label %.preheader.lr.ph

.preheader.lr.ph:                                 ; preds = %3
  %5 = getelementptr inbounds nuw i8, ptr %2, i64 8
  br label %.preheader

.preheader:                                       ; preds = %.preheader.lr.ph, %61
  %6 = phi i8 [ %4, %.preheader.lr.ph ], [ %62, %61 ]
  %.054108 = phi ptr [ %0, %.preheader.lr.ph ], [ %.249, %61 ]
  br label %7

7:                                                ; preds = %.preheader, %19
  %8 = phi i8 [ %.pr, %19 ], [ %6, %.preheader ]
  %.050 = phi ptr [ %.151, %19 ], [ null, %.preheader ]
  %.047 = phi ptr [ %.148, %19 ], [ %.054108, %.preheader ]
  switch i8 %8, label %17 [
    i8 61, label %9
    i8 0, label %.loopexit67
    i8 38, label %13
  ]

9:                                                ; preds = %7
  %.not61 = icmp eq ptr %.050, null
  br i1 %.not61, label %11, label %10

10:                                               ; preds = %9
  tail call void (ptr, ptr, ...) @libpq_append_error(ptr noundef nonnull %2, ptr noundef nonnull @.str.237, ptr noundef nonnull %.054108) #25
  br label %.thread

11:                                               ; preds = %9
  %12 = getelementptr inbounds nuw i8, ptr %.047, i64 1
  store i8 0, ptr %.047, align 1
  br label %19

13:                                               ; preds = %7
  %14 = getelementptr inbounds nuw i8, ptr %.047, i64 1
  store i8 0, ptr %.047, align 1
  br label %.loopexit67

.loopexit67:                                      ; preds = %7, %13
  %.249 = phi ptr [ %14, %13 ], [ %.047, %7 ]
  %15 = icmp eq ptr %.050, null
  br i1 %15, label %16, label %20

16:                                               ; preds = %.loopexit67
  tail call void (ptr, ptr, ...) @libpq_append_error(ptr noundef nonnull %2, ptr noundef nonnull @.str.238, ptr noundef nonnull %.054108) #25
  br label %.thread

17:                                               ; preds = %7
  %18 = getelementptr inbounds nuw i8, ptr %.047, i64 1
  br label %19

19:                                               ; preds = %17, %11
  %.151 = phi ptr [ %12, %11 ], [ %.050, %17 ]
  %.148 = phi ptr [ %12, %11 ], [ %18, %17 ]
  %.pr = load i8, ptr %.148, align 1
  br label %7

20:                                               ; preds = %.loopexit67
  %21 = tail call fastcc ptr @conninfo_uri_decode(ptr noundef nonnull %.054108, ptr noundef %2)
  %.not169.not = icmp ne ptr %21, null
  br i1 %.not169.not, label %22, label %.thread

22:                                               ; preds = %20
  %23 = tail call fastcc ptr @conninfo_uri_decode(ptr noundef nonnull %.050, ptr noundef %2)
  %24 = icmp eq ptr %23, null
  br i1 %24, label %25, label %26

25:                                               ; preds = %22
  tail call void @free(ptr noundef nonnull %21) #25
  br label %.thread

26:                                               ; preds = %22
  %27 = tail call i32 @strcmp(ptr noundef nonnull dereferenceable(1) %21, ptr noundef nonnull dereferenceable(4) @.str.239) #26
  %28 = icmp eq i32 %27, 0
  br i1 %28, label %29, label %33

29:                                               ; preds = %26
  %30 = tail call i32 @strcmp(ptr noundef nonnull dereferenceable(1) %23, ptr noundef nonnull dereferenceable(5) @.str.240) #26
  %31 = icmp eq i32 %30, 0
  br i1 %31, label %32, label %33

32:                                               ; preds = %29
  tail call void @free(ptr noundef nonnull %21) #25
  tail call void @free(ptr noundef nonnull %23) #25
  br label %33

33:                                               ; preds = %32, %29, %26
  %.053 = phi ptr [ @.str.28, %32 ], [ %21, %29 ], [ %21, %26 ]
  %.252 = phi ptr [ @.str.20, %32 ], [ %23, %29 ], [ %23, %26 ]
  %.046 = phi i1 [ false, %32 ], [ true, %29 ], [ true, %26 ]
  %34 = load i64, ptr %5, align 8
  %35 = tail call i32 @strcmp(ptr noundef nonnull dereferenceable(1) %.053, ptr noundef nonnull dereferenceable(11) @.str.260) #26
  %36 = icmp eq i32 %35, 0
  br i1 %36, label %37, label %40

37:                                               ; preds = %33
  %38 = load i8, ptr %.252, align 1
  %39 = icmp eq i8 %38, 49
  %.str.20..str.19.i = select i1 %39, ptr @.str.20, ptr @.str.19
  br label %40

40:                                               ; preds = %37, %33
  %.021.i = phi ptr [ %.252, %33 ], [ %.str.20..str.19.i, %37 ]
  %.020.i = phi ptr [ %.053, %33 ], [ @.str.28, %37 ]
  %41 = load ptr, ptr %1, align 8
  %.not9.i.i = icmp eq ptr %41, null
  br i1 %.not9.i.i, label %.loopexit, label %.lr.ph.i.i

.lr.ph.i.i:                                       ; preds = %40, %45
  %42 = phi ptr [ %47, %45 ], [ %41, %40 ]
  %.010.i.i = phi ptr [ %46, %45 ], [ %1, %40 ]
  %43 = tail call i32 @strcmp(ptr noundef nonnull dereferenceable(1) %42, ptr noundef nonnull readonly dereferenceable(1) %.020.i) #26
  %44 = icmp eq i32 %43, 0
  br i1 %44, label %conninfo_find.exit.i, label %45

45:                                               ; preds = %.lr.ph.i.i
  %46 = getelementptr inbounds nuw i8, ptr %.010.i.i, i64 56
  %47 = load ptr, ptr %46, align 8
  %.not.i.i = icmp eq ptr %47, null
  br i1 %.not.i.i, label %.loopexit, label %.lr.ph.i.i, !llvm.loop !11

conninfo_find.exit.i:                             ; preds = %.lr.ph.i.i
  %48 = tail call noalias ptr @strdup(ptr noundef %.021.i) #25
  %49 = icmp eq ptr %48, null
  br i1 %49, label %50, label %57

50:                                               ; preds = %conninfo_find.exit.i
  tail call void (ptr, ptr, ...) @libpq_append_error(ptr noundef nonnull %2, ptr noundef nonnull @.str) #25
  %.pre = load i64, ptr %5, align 8
  br label %.loopexit

.loopexit:                                        ; preds = %40, %45, %50
  %51 = phi i64 [ %.pre, %50 ], [ %34, %45 ], [ %34, %40 ]
  %sext = shl i64 %34, 32
  %52 = ashr exact i64 %sext, 32
  %53 = icmp eq i64 %51, %52
  br i1 %53, label %54, label %55

54:                                               ; preds = %.loopexit
  tail call void (ptr, ptr, ...) @libpq_append_error(ptr noundef nonnull %2, ptr noundef nonnull @.str.241, ptr noundef nonnull %.053) #25
  br label %55

55:                                               ; preds = %54, %.loopexit
  br i1 %.046, label %56, label %.thread

56:                                               ; preds = %55
  tail call void @free(ptr noundef %.053) #25
  tail call void @free(ptr noundef %.252) #25
  br label %.thread

57:                                               ; preds = %conninfo_find.exit.i
  %58 = getelementptr inbounds nuw i8, ptr %.010.i.i, i64 24
  %59 = load ptr, ptr %58, align 8
  tail call void @free(ptr noundef %59) #25
  store ptr %48, ptr %58, align 8
  br i1 %.046, label %60, label %61

60:                                               ; preds = %57
  tail call void @free(ptr noundef %.053) #25
  tail call void @free(ptr noundef %.252) #25
  br label %61

61:                                               ; preds = %57, %60
  %62 = load i8, ptr %.249, align 1
  %.not = icmp eq i8 %62, 0
  br i1 %.not, label %.thread, label %.preheader

.thread:                                          ; preds = %61, %20, %3, %55, %56, %25, %16, %10
  %.not99 = phi i1 [ false, %55 ], [ false, %56 ], [ false, %25 ], [ false, %16 ], [ false, %10 ], [ true, %3 ], [ %.not169.not, %20 ], [ %.not169.not, %61 ]
  ret i1 %.not99
}